(dp1
V\u8981
I98
sV\u4e00
I2992
sV\u516c\u56ed
p2
I62
sV\u8def\u4e0a
p3
I180
sV\u5c0f\u5b69
p4
I1563
sV\u6500
I49
sV\u4eba\u7fa4
p5
I71
sV\u80cc\u5fc3
p6
I53
sV\u7231\u597d\u8005
p7
I94
sV\u5927\u4eba
p8
I79
sV\u5409\u4ed6
p9
I40
sV\u72d7\u72d7
p10
I760
sV\u5410
I76
sV\u820c\u5934
p11
I79
sV\u7403\u5458
p12
I68
sV\u8857\u9053
p13
I289
sV\u55b7\u6cc9
p14
I43
sV\u9a91\u8f66
p15
I192
sV\u8f6e\u6ed1
p16
I67
sV\u5c71\u4e0a
p17
I75
sV\u573a\u5730
p18
I44
sV\u6d77\u8fb9
p19
I299
sV\u5973\u4eba
p20
I1129
sV\u63a5
I72
sV\u4e24
I1597
sV\u80cc\u7740
p21
I80
sV\u6c34\u8fb9
p22
I106
sV\u4e00\u4e2a
p23
I3527
sV\u4e1c\u897f
p24
I404
sV\u88ab
I122
sV\u722c
I129
sV\u8868\u6f14
p25
I254
sV\u77f3\u5934
p26
I96
sV\u5230
I73
sV\u6c34\u4e2d
p27
I546
sV\u6234
I749
sV\u96ea\u4e0a
p28
I42
sV\u68d2\u7403
p29
I91
sV\u8fb9
I242
sV\u53ef\u7231
p30
I50
sV\u8de8\u680f
p31
I56
sV\u65c1
I316
sV\u62cd\u7167
p32
I167
sV\u9ed1\u8272
p33
I106
sV\u592b\u5987
p34
I53
sV\u7537
I77
sV\u8361\u79cb\u5343
p35
I72
sV\u5a74\u513f
p36
I54
sV\u518d
I63
sV\u5934\u76d4
p37
I102
sV\u554a
I106
sV\u98de\u5954
p38
I83
sV\u8857\u4e0a
p39
I137
sV\u6728\u5934
p40
I51
sV\u800c
I49
sV\u8dd1
I551
sV\u5634\u91cc
p41
I97
sV\u6c7d\u8f66
p42
I75
sV\u8dd1\u6b65
p43
I77
sV\u6254
I58
sV\u72d7
I2070
sV\u8db3\u7403
p44
I119
sV\u6e38\u6cf3
p45
I153
sV\u56db
I123
sV\u7f8e\u5973
p46
I83
sV\u7537\u4eba
p47
I2152
sV\u5c0f\u5b69\u5b50
p48
I166
sV\u9a6c\u8def
p49
I114
sV\u8eba
I118
sV\u957f\u6bdb
p50
I65
sV\u8863\u670d
p51
I302
sV\u8f66
I257
sV\u4fe9
I59
sV\u6d77\u91cc
p52
I107
sV\u84dd\u8272
p53
I53
sV\u4e2d\u5e74
p54
I41
sV\u8d70\u8def
p55
I41
sV\u68cd\u5b50
p56
I53
sV\u722c\u5c71
p57
I94
sV\u5bf9
I192
sV\u6478
I51
sV\u8001\u4eba
p58
I224
sV\u8ffd
I153
sV\u62ff
I524
sV\u5c0f\u8def
p59
I44
sV\u7403
I427
sV\u5927\u5634
p60
I46
sV\u5305
I51
sV\u7684
I7043
sV\u8f86
I87
sV\u6709
I2084
sV\u4e0b
I312
sV\u80cc\u5f71
p61
I49
sV\u548c
I494
sV\u5c0f
I2274
sV\u9a6c
I49
sV\u72c2\u5954
p62
I70
sV\u8ffd\u8d76
p63
I42
sV\u884c\u8d70
p64
I159
sV\u6cb3\u91cc
p65
I52
sV\u5fae\u7b11
p66
I62
sV\u5927\u8857
p67
I67
sV\u9e1f
I65
sV\u8fdb\u884c
p68
I58
sV\u6c99\u53d1
p69
I46
sV\u680f\u6746
p70
I69
sV\u58a8\u955c
p71
I151
sV\u6253\u95f9
p72
I98
sV\u53c2\u52a0
p73
I45
sV\u54ac
I342
sV\u60c5\u4fa3
p74
I134
sV\u957f
I49
sV\u8fdc\u65b9
p75
I41
sV\u7f51\u7403
p76
I47
sV\u8e72
I58
sV\u73a9\u800d
p77
I1019
sV\u684c\u5b50
p78
I42
sV\u65c1\u8fb9
p79
I135
sV\u8f66\u4e0a
p80
I64
sV\u7a7a\u4e2d
p81
I148
sV\u8d77\u6765
p82
I408
sV\u8d5b\u8f66
p83
I89
sV\u5403
I98
sV\u6469\u6258\u8f66
p84
I133
sV\u624b
I275
sV\u4f4d
I153
sV\u81ea\u5df1
p85
I51
sV\u63a8
I50
sV\u6253
I281
sV\u9053\u8def
p86
I103
sV\u73a9\u5177
p87
I104
sV\u8857
I80
sV\u817e\u7a7a\u800c\u8d77
p88
I110
sV\u8df3\u8dc3
p89
I226
sV\u7ef3\u5b50
p90
I46
sV\u6ed1\u96ea
p91
I204
sV\u5e8a
I69
sV\u7167\u76f8\u673a
p92
I43
sV\u6bd4\u8d5b
p93
I356
sV\u6761
I201
sV\u6cb3\u8fb9
p94
I84
sV\u6cf3\u6c60
p95
I69
sV\u5165
I50
sV\u9ed1\u72d7
p96
I60
sV\u53e6
I109
sV\u53ea
I1631
sV\u4eec
I378
sV\u624b\u91cc
p97
I111
sV\u73a9
I1657
sV\u6ed1\u96ea\u677f
p98
I49
sV\u7eff\u8272
p99
I44
sV\u7528
I80
sV\u9ec4
I48
sV\u7b11
I58
sV\u51fa
I40
sV\u6c34\u9762
p100
I93
sV\u5634
I84
sV\u7a7f
I811
sV\u82b1
I53
sV\u5f00
I62
sV\u6402
I55
sV\u8df3\u821e
p101
I95
sV\u8bad\u7ec3
p102
I71
sV\u6781\u9650
p103
I43
sV\u817e\u7a7a
p104
I74
sV\u4e0a
I3164
sV\u96ea\u5730
p105
I353
sV\u8349\u4e1b
p106
I117
sV\u6563\u6b65
p107
I72
sV\u6811
I75
sV\u9a91
I503
sV\u6a44\u6984\u7403
p108
I70
sV\u7ea2
I85
sV\u5012
I44
sV\u6495
I70
sV\u7ea2\u8272
p109
I101
sV\u88d9\u5b50
p110
I64
sV\u8df3\u6c34
p111
I86
sV\u5c11\u5e74
p112
I66
sV\u6ed1
I171
sV\u5f20
I91
sV\u8e22
I99
sV\u5e3d\u5b50
p113
I302
sV\u5e26
I262
sV\u5ca9
I47
sV\u5728
I6988
sV\u4e2a
I1590
sV\u559d
I44
sV\u51c6\u5907
p114
I82
sV\u5954\u8dd1
p115
I846
sV\u62b1
I203
sV\u96ea\u5c71
p116
I92
sV\u5934
I119
sV\u6253\u7403
p117
I129
sV\u9ec4\u8272
p118
I57
sV\u6c34
I566
sV\u4eba\u4eec
p119
I574
sV\u7740
I3658
sV\u6b63\u5728
p120
I2454
sV\u8fc7
I123
sV\u767d\u8272
p121
I97
sV\u62c9
I110
sV\u8eab\u4e0a
p122
I56
sV\u957f\u6905
p123
I41
sV\u5973
I63
sV\u767d\u72d7
p124
I126
sV\u6ed1\u677f
p125
I317
sV\u6253\u67b6
p126
I101
sV\u9ed1
I294
sV\u5750
I685
sV\u4e0b\u6765
p127
I46
sV\u8fb9\u4e0a
p128
I43
sV\u7ad9
I752
sV\u8fdb
I57
sV\u505a
I110
sV\u8ddf
I50
sV\u6c99\u6ee9
p129
I207
sV\u9760
I76
sV\u4ea4\u8c08
p130
I41
sV\u6811\u6797
p131
I60
sV\u4e66
I43
sV\u6811\u679d
p132
I43
sV\u8eab
I47
sV\u8d70
I397
sV\u8df3
I506
sV\u8857\u5934
p133
I84
sV\u4e00\u8d77
p134
I291
sV\u98de\u8dc3
p135
I70
sV\u6276
I48
sV\u6c34\u4e0a
p136
I111
sV\u5c0f\u670b\u53cb
p137
I279
sV\u4e3e
I93
sV\u5408\u7167
p138
I176
sV\u730e\u72d7
p139
I42
sV\u5f88\u591a
p140
I474
sV\u5f80
I78
sV\u8d5b\u8dd1
p141
I53
sV\u9017
I58
sV\u7ed9
I58
sV\u4e86
I339
sV\u4e09
I341
sV\u770b
I461
sV\u89c2\u770b
p142
I79
sV\u540d
I346
sV\u5212\u8239
p143
I93
sV\u7537\u5b69
p144
I979
sV\u7167\u76f8
p145
I213
sV\u5411
I196
sV\u8ffd\u9010
p146
I63
sV\u9633\u5149
p147
I56
sV\u52a8\u7269
p148
I40
sV\u7537\u5973
p149
I114
sV\u6728\u68cd
p150
I63
sV\u5730\u4e0a
p151
I256
sV\u9ec4\u72d7
p152
I90
sV\u671b
I81
sV\u6905\u5b50
p153
I131
sV\u4f11\u606f
p154
I155
sV\u6469\u6258
p155
I103
sV\u62a2
I128
sV\u7fa4
I1166
sV\u5927
I214
sV\u8e29
I89
sV\u8349\u5730
p156
I840
sV\u6500\u5ca9
p157
I120
sV\u4e2d
I724
sV\u6d77\u4e0a
p158
I132
sV\u63a5\u7403
p159
I50
sV\u571f\u5730
p160
I51
sV\u6e38\u6cf3\u6c60
p161
I76
sV\u81ea\u884c\u8f66
p162
I319
sV\u6ed1\u68af
p163
I57
sV\u8db4
I154
sV\u8def\u8fb9
p164
I161
sV\u7537\u5b50
p165
I1340
sV\u4eba
I3442
sV\u628a
I68
sV\u5ca9\u77f3
p166
I69
sV\u56f4
I47
sV\u98de\u76d8
p167
I78
sV\u767b\u5c71
p168
I40
sV\u7bee\u7403
p169
I80
sV\u6d77
I48
sV\u5c71\u9876
p170
I71
sV\u5973\u5b50
p171
I487
sV\u524d
I74
sV\u91cc
I1222
sV\u4f4f
I133
sV\u4ece
I130
sV\u6e38\u620f
p172
I60
sV\u8fd0\u52a8\u5458
p173
I307
sV\u5b09\u620f
p174
I50
sV\u53f0\u4e0a
p175
I40
sV\u8fd0\u52a8
p176
I124
sV\u5934\u53d1
p177
I95
sV\u98de
I126
sV\u79cb\u5343
p178
I83
sV\u51e0
I222
sV\u6b63
I338
sV\u53f0\u9636
p179
I92
sV\u53f7
I49
sV\u82b1\u6837
p180
I245
sV\u8e22\u7403
p181
I51
sV\u6bd4\u57fa\u5c3c
p182
I44
sV\u773c\u955c
p183
I150
sV\u96ea
I129
sV\u4e92\u76f8
p184
I67
sV\u5c71
I43
sV\u5973\u5b69
p185
I860
sV\u8349\u576a
p186
I375
sV\u7275
I57
sV\u4e0a\u9762
p187
I124
sV\u8d77
I119
sV\u5b69\u5b50
p188
I965
sV2
I51
sV\u767d
I73
sV\u53fc
I246
sV\u51b2\u6d6a
p189
I159
sV\u4e0a\u8863
p190
I50
s.